; Function Attrs: mustprogress nofree norecurse nosync nounwind willreturn memory(read, argmem: readwrite, inaccessiblemem: none) uwtable
define internal void @"_ZNSt17_Function_handlerIFvRjEZN3spv10spirvbin_t8applyMapEvE3$_0E9_M_invokeERKSt9_Any_dataS0_"(ptr nocapture noundef nonnull readonly align 8 dereferenceable(16) %0, ptr nocapture noundef nonnull align 4 dereferenceable(4) %1) #14 align 2 {
  %.val = load ptr, ptr %0, align 8
  %3 = getelementptr i8, ptr %.val, i64 408
  %.val.val = load ptr, ptr %3, align 8
  %4 = load i32, ptr %1, align 4
  %5 = zext i32 %4 to i64
  %6 = getelementptr inbounds i32, ptr %.val.val, i64 %5
  %7 = load i32, ptr %6, align 4
  store i32 %7, ptr %1, align 4
  ret void
}